target datalayout = "e-m:e-p270:32:32-p271:32:32-p272:64:64-i64:64-i128:128-f80:128-n8:16:32:64-S128"
target triple = "x86_64-pc-linux-gnu"

%struct.Ssw_Man_t_ = type { ptr, i32, ptr, ptr, ptr, ptr, i32, ptr, ptr, ptr, i32, i32, i32, i32, i32, i32, i32, i32, i32, i32, i32, ptr, i32, ptr, i32, i32, i32, i32, ptr, ptr, ptr, i32, ptr, i32, i32, ptr, ptr, ptr, i32, ptr, i32, i32, i32, i32, i32, i32, i32, i32, i32, i32, i32, i32, i32, i32, i32, i32, i32, i32, i32, i32, i32, i32, i64, i64, i64, i64, i64, i64, i64, i64, i64, i64 }
%struct.Aig_Man_t_ = type { ptr, ptr, ptr, ptr, ptr, ptr, ptr, %struct.Aig_Obj_t_, i32, i32, i32, i32, i32, i32, [7 x i32], i32, ptr, i32, ptr, i32, ptr, i32, i32, i32, ptr, i32, i32, i32, i32, i32, ptr, ptr, i32, ptr, ptr, i32, ptr, ptr, i32, i32, i32, ptr, ptr, ptr, ptr, ptr, ptr, ptr, ptr, ptr, ptr, ptr, ptr, ptr, ptr, i32, ptr, ptr, ptr, ptr, i32, i64, i64, i64, ptr, ptr }
%struct.Aig_Obj_t_ = type { %union.anon, ptr, ptr, i64, i32, i32, %union.anon.0 }
%union.anon = type { ptr }
%union.anon.0 = type { ptr }
%struct.Vec_Ptr_t_ = type { i32, i32, ptr }
%struct.timespec = type { i64, i64 }

; Function Attrs: inlinehint nounwind uwtable
define internal ptr @Aig_Not(ptr noundef %0) #2 {
  %2 = alloca ptr, align 8
  store ptr %0, ptr %2, align 8, !tbaa !30
  %3 = load ptr, ptr %2, align 8, !tbaa !30
  %4 = ptrtoint ptr %3 to i64
  %5 = xor i64 %4, 1
  %6 = inttoptr i64 %5 to ptr
  ret ptr %6
}

; Function Attrs: inlinehint nounwind uwtable
define internal i32 @Aig_ObjCioId(ptr noundef %0) #2 {
  %2 = alloca ptr, align 8
  store ptr %0, ptr %2, align 8, !tbaa !30
  %3 = load ptr, ptr %2, align 8, !tbaa !30
  %4 = getelementptr inbounds nuw %struct.Aig_Obj_t_, ptr %3, i32 0, i32 0
  %5 = load i32, ptr %4, align 8, !tbaa !47
  ret i32 %5
}

; Function Attrs: inlinehint nounwind uwtable
define internal ptr @Aig_ManConst0(ptr noundef %0) #2 {
  %2 = alloca ptr, align 8
  store ptr %0, ptr %2, align 8, !tbaa !45
  %3 = load ptr, ptr %2, align 8, !tbaa !45
  %4 = getelementptr inbounds nuw %struct.Aig_Man_t_, ptr %3, i32 0, i32 6
  %5 = load ptr, ptr %4, align 8, !tbaa !46
  %6 = call ptr @Aig_Not(ptr noundef %5)
  ret ptr %6
}

; Function Attrs: inlinehint nounwind uwtable
define internal ptr @Ssw_ObjFrame(ptr noundef %0, ptr noundef %1, i32 noundef %2) #2 {
  %4 = alloca ptr, align 8
  %5 = alloca ptr, align 8
  %6 = alloca i32, align 4
  store ptr %0, ptr %4, align 8, !tbaa !3
  store ptr %1, ptr %5, align 8, !tbaa !30
  store i32 %2, ptr %6, align 4, !tbaa !8
  %7 = load ptr, ptr %4, align 8, !tbaa !3
  %8 = getelementptr inbounds nuw %struct.Ssw_Man_t_, ptr %7, i32 0, i32 4
  %9 = load ptr, ptr %8, align 8, !tbaa !42
  %10 = load ptr, ptr %4, align 8, !tbaa !3
  %11 = getelementptr inbounds nuw %struct.Ssw_Man_t_, ptr %10, i32 0, i32 1
  %12 = load i32, ptr %11, align 8, !tbaa !43
  %13 = load ptr, ptr %5, align 8, !tbaa !30
  %14 = getelementptr inbounds nuw %struct.Aig_Obj_t_, ptr %13, i32 0, i32 5
  %15 = load i32, ptr %14, align 4, !tbaa !44
  %16 = mul nsw i32 %12, %15
  %17 = load i32, ptr %6, align 4, !tbaa !8
  %18 = add nsw i32 %16, %17
  %19 = sext i32 %18 to i64
  %20 = getelementptr inbounds ptr, ptr %9, i64 %19
  %21 = load ptr, ptr %20, align 8, !tbaa !30
  ret ptr %21
}

; Function Attrs: inlinehint nounwind uwtable
define internal ptr @Vec_PtrEntry(ptr noundef %0, i32 noundef %1) #2 {
  %3 = alloca ptr, align 8
  %4 = alloca i32, align 4
  store ptr %0, ptr %3, align 8, !tbaa !37
  store i32 %1, ptr %4, align 4, !tbaa !8
  %5 = load ptr, ptr %3, align 8, !tbaa !37
  %6 = getelementptr inbounds nuw %struct.Vec_Ptr_t_, ptr %5, i32 0, i32 2
  %7 = load ptr, ptr %6, align 8, !tbaa !40
  %8 = load i32, ptr %4, align 4, !tbaa !8
  %9 = sext i32 %8 to i64
  %10 = getelementptr inbounds ptr, ptr %7, i64 %9
  %11 = load ptr, ptr %10, align 8, !tbaa !41
  ret ptr %11
}

; Function Attrs: inlinehint nounwind uwtable
define internal i32 @Vec_PtrSize(ptr noundef %0) #2 {
  %2 = alloca ptr, align 8
  store ptr %0, ptr %2, align 8, !tbaa !37
  %3 = load ptr, ptr %2, align 8, !tbaa !37
  %4 = getelementptr inbounds nuw %struct.Vec_Ptr_t_, ptr %3, i32 0, i32 1
  %5 = load i32, ptr %4, align 4, !tbaa !38
  ret i32 %5
}

; Function Attrs: inlinehint nounwind uwtable
define internal void @Vec_PtrCleanSimInfo(ptr noundef %0, i32 noundef %1, i32 noundef %2) #2 {
  %4 = alloca ptr, align 8
  %5 = alloca i32, align 4
  %6 = alloca i32, align 4
  %7 = alloca i32, align 4
  store ptr %0, ptr %4, align 8, !tbaa !37
  store i32 %1, ptr %5, align 4, !tbaa !8
  store i32 %2, ptr %6, align 4, !tbaa !8
  call void @llvm.lifetime.start.p0(i64 4, ptr %7) #8
  store i32 0, ptr %7, align 4, !tbaa !8
  br label %8

8:                                                ; preds = %27, %3
  %9 = load i32, ptr %7, align 4, !tbaa !8
  %10 = load ptr, ptr %4, align 8, !tbaa !37
  %11 = getelementptr inbounds nuw %struct.Vec_Ptr_t_, ptr %10, i32 0, i32 1
  %12 = load i32, ptr %11, align 4, !tbaa !38
  %13 = icmp slt i32 %9, %12
  br i1 %13, label %14, label %30

14:                                               ; preds = %8
  %15 = load ptr, ptr %4, align 8, !tbaa !37
  %16 = load i32, ptr %7, align 4, !tbaa !8
  %17 = call ptr @Vec_PtrEntry(ptr noundef %15, i32 noundef %16)
  %18 = load i32, ptr %5, align 4, !tbaa !8
  %19 = mul nsw i32 4, %18
  %20 = sext i32 %19 to i64
  %21 = getelementptr inbounds i8, ptr %17, i64 %20
  %22 = load i32, ptr %6, align 4, !tbaa !8
  %23 = load i32, ptr %5, align 4, !tbaa !8
  %24 = sub nsw i32 %22, %23
  %25 = mul nsw i32 4, %24
  %26 = sext i32 %25 to i64
  call void @llvm.memset.p0.i64(ptr align 1 %21, i8 0, i64 %26, i1 false)
  br label %27

27:                                               ; preds = %14
  %28 = load i32, ptr %7, align 4, !tbaa !8
  %29 = add nsw i32 %28, 1
  store i32 %29, ptr %7, align 4, !tbaa !8
  br label %8, !llvm.loop !53

30:                                               ; preds = %8
  call void @llvm.lifetime.end.p0(i64 4, ptr %7) #8
  ret void
}

; Function Attrs: nounwind uwtable
define void @Ssw_ManSweepTransfer(ptr noundef %0) #0 {
  %2 = alloca ptr, align 8
  %3 = alloca ptr, align 8
  %4 = alloca ptr, align 8
  %5 = alloca ptr, align 8
  %6 = alloca i32, align 4
  store ptr %0, ptr %2, align 8, !tbaa !3
  call void @llvm.lifetime.start.p0(i64 8, ptr %3) #8
  call void @llvm.lifetime.start.p0(i64 8, ptr %4) #8
  call void @llvm.lifetime.start.p0(i64 8, ptr %5) #8
  call void @llvm.lifetime.start.p0(i64 4, ptr %6) #8
  store i32 0, ptr %6, align 4, !tbaa !8
  br label %7

7:                                                ; preds = %55, %1
  %8 = load i32, ptr %6, align 4, !tbaa !8
  %9 = load ptr, ptr %2, align 8, !tbaa !3
  %10 = getelementptr inbounds nuw %struct.Ssw_Man_t_, ptr %9, i32 0, i32 2
  %11 = load ptr, ptr %10, align 8, !tbaa !10
  %12 = getelementptr inbounds nuw %struct.Aig_Man_t_, ptr %11, i32 0, i32 2
  %13 = load ptr, ptr %12, align 8, !tbaa !22
  %14 = call i32 @Vec_PtrSize(ptr noundef %13)
  %15 = icmp slt i32 %8, %14
  br i1 %15, label %16, label %24

16:                                               ; preds = %7
  %17 = load ptr, ptr %2, align 8, !tbaa !3
  %18 = getelementptr inbounds nuw %struct.Ssw_Man_t_, ptr %17, i32 0, i32 2
  %19 = load ptr, ptr %18, align 8, !tbaa !10
  %20 = getelementptr inbounds nuw %struct.Aig_Man_t_, ptr %19, i32 0, i32 2
  %21 = load ptr, ptr %20, align 8, !tbaa !22
  %22 = load i32, ptr %6, align 4, !tbaa !8
  %23 = call ptr @Vec_PtrEntry(ptr noundef %21, i32 noundef %22)
  store ptr %23, ptr %3, align 8, !tbaa !30
  br label %24

24:                                               ; preds = %16, %7
  %25 = phi i1 [ false, %7 ], [ true, %16 ]
  br i1 %25, label %26, label %58

26:                                               ; preds = %24
  %27 = load ptr, ptr %2, align 8, !tbaa !3
  %28 = load ptr, ptr %3, align 8, !tbaa !30
  %29 = call ptr @Ssw_ObjFrame(ptr noundef %27, ptr noundef %28, i32 noundef 0)
  store ptr %29, ptr %4, align 8, !tbaa !30
  %30 = load ptr, ptr %4, align 8, !tbaa !30
  %31 = load ptr, ptr %2, align 8, !tbaa !3
  %32 = getelementptr inbounds nuw %struct.Ssw_Man_t_, ptr %31, i32 0, i32 3
  %33 = load ptr, ptr %32, align 8, !tbaa !31
  %34 = call ptr @Aig_ManConst0(ptr noundef %33)
  %35 = icmp eq ptr %30, %34
  br i1 %35, label %36, label %41

36:                                               ; preds = %26
  %37 = load ptr, ptr %2, align 8, !tbaa !3
  %38 = getelementptr inbounds nuw %struct.Ssw_Man_t_, ptr %37, i32 0, i32 32
  %39 = load ptr, ptr %38, align 8, !tbaa !32
  %40 = load ptr, ptr %3, align 8, !tbaa !30
  call void @Ssw_SmlObjAssignConst(ptr noundef %39, ptr noundef %40, i32 noundef 0, i32 noundef 0)
  br label %55

41:                                               ; preds = %26
  %42 = load ptr, ptr %2, align 8, !tbaa !3
  %43 = getelementptr inbounds nuw %struct.Ssw_Man_t_, ptr %42, i32 0, i32 9
  %44 = load ptr, ptr %43, align 8, !tbaa !33
  %45 = load ptr, ptr %4, align 8, !tbaa !30
  %46 = call i32 @Aig_ObjCioId(ptr noundef %45)
  %47 = call ptr @Vec_PtrEntry(ptr noundef %44, i32 noundef %46)
  store ptr %47, ptr %5, align 8, !tbaa !34
  %48 = load ptr, ptr %2, align 8, !tbaa !3
  %49 = getelementptr inbounds nuw %struct.Ssw_Man_t_, ptr %48, i32 0, i32 32
  %50 = load ptr, ptr %49, align 8, !tbaa !32
  %51 = load ptr, ptr %3, align 8, !tbaa !30
  %52 = load ptr, ptr %5, align 8, !tbaa !34
  %53 = getelementptr inbounds i32, ptr %52, i64 0
  %54 = load i32, ptr %53, align 4, !tbaa !8
  call void @Ssw_SmlObjSetWord(ptr noundef %50, ptr noundef %51, i32 noundef %54, i32 noundef 0, i32 noundef 0)
  br label %55

55:                                               ; preds = %41, %36
  %56 = load i32, ptr %6, align 4, !tbaa !8
  %57 = add nsw i32 %56, 1
  store i32 %57, ptr %6, align 4, !tbaa !8
  br label %7, !llvm.loop !35

58:                                               ; preds = %24
  call void @llvm.lifetime.end.p0(i64 4, ptr %6) #8
  call void @llvm.lifetime.end.p0(i64 8, ptr %5) #8
  call void @llvm.lifetime.end.p0(i64 8, ptr %4) #8
  call void @llvm.lifetime.end.p0(i64 8, ptr %3) #8
  ret void
}

; Function Attrs: inlinehint nounwind uwtable
define internal i64 @Abc_Clock() #2 {
  %1 = alloca i64, align 8
  %2 = alloca %struct.timespec, align 8
  %3 = alloca i32, align 4
  %4 = alloca i64, align 8
  call void @llvm.lifetime.start.p0(i64 16, ptr %2) #8
  %5 = call i32 @clock_gettime(i32 noundef 1, ptr noundef %2) #8
  %6 = icmp slt i32 %5, 0
  br i1 %6, label %7, label %8

7:                                                ; preds = %0
  store i64 -1, ptr %1, align 8
  store i32 1, ptr %3, align 4
  br label %19

8:                                                ; preds = %0
  call void @llvm.lifetime.start.p0(i64 8, ptr %4) #8
  %9 = getelementptr inbounds nuw %struct.timespec, ptr %2, i32 0, i32 0
  %10 = load i64, ptr %9, align 8, !tbaa !105
  %11 = mul nsw i64 %10, 1000000
  store i64 %11, ptr %4, align 8, !tbaa !48
  %12 = getelementptr inbounds nuw %struct.timespec, ptr %2, i32 0, i32 1
  %13 = load i64, ptr %12, align 8, !tbaa !107
  %14 = mul nsw i64 %13, 1000000
  %15 = sdiv i64 %14, 1000000000
  %16 = load i64, ptr %4, align 8, !tbaa !48
  %17 = add nsw i64 %16, %15
  store i64 %17, ptr %4, align 8, !tbaa !48
  %18 = load i64, ptr %4, align 8, !tbaa !48
  store i64 %18, ptr %1, align 8
  store i32 1, ptr %3, align 4
  call void @llvm.lifetime.end.p0(i64 8, ptr %4) #8
  br label %19

19:                                               ; preds = %8, %7
  call void @llvm.lifetime.end.p0(i64 16, ptr %2) #8
  %20 = load i64, ptr %1, align 8
  ret i64 %20
}

; Function Attrs: nounwind uwtable
define i32 @Ssw_ManSweepResimulate(ptr noundef %0) #0 {
  %2 = alloca ptr, align 8
  %3 = alloca i32, align 4
  %4 = alloca i32, align 4
  %5 = alloca i64, align 8
  store ptr %0, ptr %2, align 8, !tbaa !3
  call void @llvm.lifetime.start.p0(i64 4, ptr %3) #8
  call void @llvm.lifetime.start.p0(i64 4, ptr %4) #8
  call void @llvm.lifetime.start.p0(i64 8, ptr %5) #8
  %6 = call i64 @Abc_Clock()
  store i64 %6, ptr %5, align 8, !tbaa !48
  %7 = load ptr, ptr %2, align 8, !tbaa !3
  call void @Ssw_ManSweepTransfer(ptr noundef %7)
  %8 = load ptr, ptr %2, align 8, !tbaa !3
  %9 = getelementptr inbounds nuw %struct.Ssw_Man_t_, ptr %8, i32 0, i32 32
  %10 = load ptr, ptr %9, align 8, !tbaa !32
  call void @Ssw_SmlSimulateOneFrame(ptr noundef %10)
  %11 = load ptr, ptr %2, align 8, !tbaa !3
  %12 = getelementptr inbounds nuw %struct.Ssw_Man_t_, ptr %11, i32 0, i32 5
  %13 = load ptr, ptr %12, align 8, !tbaa !49
  %14 = call i32 @Ssw_ClassesRefineConst1(ptr noundef %13, i32 noundef 1)
  store i32 %14, ptr %3, align 4, !tbaa !8
  %15 = load ptr, ptr %2, align 8, !tbaa !3
  %16 = getelementptr inbounds nuw %struct.Ssw_Man_t_, ptr %15, i32 0, i32 5
  %17 = load ptr, ptr %16, align 8, !tbaa !49
  %18 = call i32 @Ssw_ClassesRefine(ptr noundef %17, i32 noundef 1)
  store i32 %18, ptr %4, align 4, !tbaa !8
  %19 = load ptr, ptr %2, align 8, !tbaa !3
  %20 = getelementptr inbounds nuw %struct.Ssw_Man_t_, ptr %19, i32 0, i32 9
  %21 = load ptr, ptr %20, align 8, !tbaa !33
  call void @Vec_PtrCleanSimInfo(ptr noundef %21, i32 noundef 0, i32 noundef 1)
  %22 = load ptr, ptr %2, align 8, !tbaa !3
  %23 = getelementptr inbounds nuw %struct.Ssw_Man_t_, ptr %22, i32 0, i32 10
  store i32 0, ptr %23, align 8, !tbaa !50
  %24 = load ptr, ptr %2, align 8, !tbaa !3
  %25 = getelementptr inbounds nuw %struct.Ssw_Man_t_, ptr %24, i32 0, i32 11
  %26 = load i32, ptr %25, align 4, !tbaa !51
  %27 = add nsw i32 %26, 1
  store i32 %27, ptr %25, align 4, !tbaa !51
  %28 = call i64 @Abc_Clock()
  %29 = load i64, ptr %5, align 8, !tbaa !48
  %30 = sub nsw i64 %28, %29
  %31 = load ptr, ptr %2, align 8, !tbaa !3
  %32 = getelementptr inbounds nuw %struct.Ssw_Man_t_, ptr %31, i32 0, i32 65
  %33 = load i64, ptr %32, align 8, !tbaa !52
  %34 = add nsw i64 %33, %30
  store i64 %34, ptr %32, align 8, !tbaa !52
  %35 = load i32, ptr %3, align 4, !tbaa !8
  %36 = icmp sgt i32 %35, 0
  br i1 %36, label %40, label %37

37:                                               ; preds = %1
  %38 = load i32, ptr %4, align 4, !tbaa !8
  %39 = icmp sgt i32 %38, 0
  br label %40

40:                                               ; preds = %37, %1
  %41 = phi i1 [ true, %1 ], [ %39, %37 ]
  %42 = zext i1 %41 to i32
  call void @llvm.lifetime.end.p0(i64 8, ptr %5) #8
  call void @llvm.lifetime.end.p0(i64 4, ptr %4) #8
  call void @llvm.lifetime.end.p0(i64 4, ptr %3) #8
  ret i32 %42
}