; Function Attrs: nounwind uwtable
define range(i32 0, 2) i32 @Ssw_ManSweepResimulate(ptr noundef captures(none) %0) local_unnamed_addr #0 {
  %2 = alloca %struct.timespec, align 8
  %3 = alloca %struct.timespec, align 8
  call void @llvm.lifetime.start.p0(i64 16, ptr nonnull %3) #9
  %4 = call i32 @clock_gettime(i32 noundef 1, ptr noundef nonnull %3) #9
  %5 = icmp slt i32 %4, 0
  br i1 %5, label %Abc_Clock.exit, label %6

6:                                                ; preds = %1
  %7 = load i64, ptr %3, align 8, !tbaa !43
  %.neg16 = mul i64 %7, -1000000
  %8 = getelementptr inbounds nuw i8, ptr %3, i64 8
  %9 = load i64, ptr %8, align 8, !tbaa !45
  %.neg = sdiv i64 %9, -1000
  %.neg17 = add i64 %.neg, %.neg16
  br label %Abc_Clock.exit

Abc_Clock.exit:                                   ; preds = %1, %6
  %.0.i.neg = phi i64 [ %.neg17, %6 ], [ 1, %1 ]
  call void @llvm.lifetime.end.p0(i64 16, ptr nonnull %3) #9
  %10 = getelementptr inbounds nuw i8, ptr %0, i64 16
  %11 = load ptr, ptr %10, align 8, !tbaa !3
  %12 = getelementptr inbounds nuw i8, ptr %11, i64 16
  %13 = load ptr, ptr %12, align 8, !tbaa !19
  %14 = getelementptr i8, ptr %13, i64 4
  %.val23.i = load i32, ptr %14, align 4, !tbaa !27
  %15 = icmp sgt i32 %.val23.i, 0
  br i1 %15, label %.lr.ph.i, label %Ssw_ManSweepTransfer.exit

.lr.ph.i:                                         ; preds = %Abc_Clock.exit
  %16 = getelementptr i8, ptr %0, i64 8
  %17 = getelementptr i8, ptr %0, i64 32
  %18 = getelementptr inbounds nuw i8, ptr %0, i64 24
  %19 = getelementptr inbounds nuw i8, ptr %0, i64 72
  %20 = getelementptr inbounds nuw i8, ptr %0, i64 200
  br label %21

21:                                               ; preds = %47, %.lr.ph.i
  %indvars.iv.i = phi i64 [ 0, %.lr.ph.i ], [ %indvars.iv.next.i, %47 ]
  %22 = phi ptr [ %13, %.lr.ph.i ], [ %50, %47 ]
  %23 = getelementptr i8, ptr %22, i64 8
  %.val16.i = load ptr, ptr %23, align 8, !tbaa !29
  %24 = getelementptr inbounds nuw ptr, ptr %.val16.i, i64 %indvars.iv.i
  %25 = load ptr, ptr %24, align 8, !tbaa !30
  %.val18.i = load i32, ptr %16, align 8, !tbaa !31
  %.val19.i = load ptr, ptr %17, align 8, !tbaa !32
  %26 = getelementptr i8, ptr %25, i64 36
  %.val20.i = load i32, ptr %26, align 4, !tbaa !33
  %27 = mul nsw i32 %.val20.i, %.val18.i
  %28 = sext i32 %27 to i64
  %29 = getelementptr inbounds ptr, ptr %.val19.i, i64 %28
  %30 = load ptr, ptr %29, align 8, !tbaa !34
  %31 = load ptr, ptr %18, align 8, !tbaa !35
  %32 = getelementptr i8, ptr %31, i64 48
  %.val21.i = load ptr, ptr %32, align 8, !tbaa !36
  %33 = ptrtoint ptr %.val21.i to i64
  %34 = xor i64 %33, 1
  %35 = inttoptr i64 %34 to ptr
  %36 = icmp eq ptr %30, %35
  br i1 %36, label %37, label %39

37:                                               ; preds = %21
  %38 = load ptr, ptr %20, align 8, !tbaa !37
  call void @Ssw_SmlObjAssignConst(ptr noundef %38, ptr noundef nonnull %25, i32 noundef 0, i32 noundef 0) #9
  br label %47

39:                                               ; preds = %21
  %40 = load ptr, ptr %19, align 8, !tbaa !38
  %.val22.i = load i32, ptr %30, align 8, !tbaa !39
  %41 = getelementptr i8, ptr %40, i64 8
  %.val17.i = load ptr, ptr %41, align 8, !tbaa !29
  %42 = sext i32 %.val22.i to i64
  %43 = getelementptr inbounds ptr, ptr %.val17.i, i64 %42
  %44 = load ptr, ptr %43, align 8, !tbaa !30
  %45 = load ptr, ptr %20, align 8, !tbaa !37
  %46 = load i32, ptr %44, align 4, !tbaa !40
  call void @Ssw_SmlObjSetWord(ptr noundef %45, ptr noundef nonnull %25, i32 noundef %46, i32 noundef 0, i32 noundef 0) #9
  br label %47

47:                                               ; preds = %39, %37
  %indvars.iv.next.i = add nuw nsw i64 %indvars.iv.i, 1
  %48 = load ptr, ptr %10, align 8, !tbaa !3
  %49 = getelementptr inbounds nuw i8, ptr %48, i64 16
  %50 = load ptr, ptr %49, align 8, !tbaa !19
  %51 = getelementptr i8, ptr %50, i64 4
  %.val.i = load i32, ptr %51, align 4, !tbaa !27
  %52 = sext i32 %.val.i to i64
  %53 = icmp slt i64 %indvars.iv.next.i, %52
  br i1 %53, label %21, label %Ssw_ManSweepTransfer.exit, !llvm.loop !41

Ssw_ManSweepTransfer.exit:                        ; preds = %47, %Abc_Clock.exit
  %54 = getelementptr inbounds nuw i8, ptr %0, i64 200
  %55 = load ptr, ptr %54, align 8, !tbaa !37
  call void @Ssw_SmlSimulateOneFrame(ptr noundef %55) #9
  %56 = getelementptr inbounds nuw i8, ptr %0, i64 40
  %57 = load ptr, ptr %56, align 8, !tbaa !46
  %58 = call i32 @Ssw_ClassesRefineConst1(ptr noundef %57, i32 noundef 1) #9
  %59 = load ptr, ptr %56, align 8, !tbaa !46
  %60 = call i32 @Ssw_ClassesRefine(ptr noundef %59, i32 noundef 1) #9
  %61 = getelementptr inbounds nuw i8, ptr %0, i64 72
  %62 = load ptr, ptr %61, align 8, !tbaa !38
  %63 = getelementptr inbounds nuw i8, ptr %62, i64 4
  %64 = load i32, ptr %63, align 4, !tbaa !27
  %65 = icmp sgt i32 %64, 0
  br i1 %65, label %.lr.ph.i10, label %Vec_PtrCleanSimInfo.exit

.lr.ph.i10:                                       ; preds = %Ssw_ManSweepTransfer.exit
  %66 = getelementptr i8, ptr %62, i64 8
  br label %67

67:                                               ; preds = %67, %.lr.ph.i10
  %indvars.iv.i11 = phi i64 [ 0, %.lr.ph.i10 ], [ %indvars.iv.next.i13, %67 ]
  %.val.i12 = load ptr, ptr %66, align 8, !tbaa !29
  %68 = getelementptr inbounds nuw ptr, ptr %.val.i12, i64 %indvars.iv.i11
  %69 = load ptr, ptr %68, align 8, !tbaa !30
  store i32 0, ptr %69, align 1
  %indvars.iv.next.i13 = add nuw nsw i64 %indvars.iv.i11, 1
  %70 = load i32, ptr %63, align 4, !tbaa !27
  %71 = sext i32 %70 to i64
  %72 = icmp slt i64 %indvars.iv.next.i13, %71
  br i1 %72, label %67, label %Vec_PtrCleanSimInfo.exit, !llvm.loop !47

Vec_PtrCleanSimInfo.exit:                         ; preds = %67, %Ssw_ManSweepTransfer.exit
  %73 = getelementptr inbounds nuw i8, ptr %0, i64 80
  store i32 0, ptr %73, align 8, !tbaa !48
  %74 = getelementptr inbounds nuw i8, ptr %0, i64 84
  %75 = load i32, ptr %74, align 4, !tbaa !49
  %76 = add nsw i32 %75, 1
  store i32 %76, ptr %74, align 4, !tbaa !49
  call void @llvm.lifetime.start.p0(i64 16, ptr nonnull %2) #9
  %77 = call i32 @clock_gettime(i32 noundef 1, ptr noundef nonnull %2) #9
  %78 = icmp slt i32 %77, 0
  br i1 %78, label %Abc_Clock.exit15, label %79

79:                                               ; preds = %Vec_PtrCleanSimInfo.exit
  %80 = load i64, ptr %2, align 8, !tbaa !43
  %81 = mul nsw i64 %80, 1000000
  %82 = getelementptr inbounds nuw i8, ptr %2, i64 8
  %83 = load i64, ptr %82, align 8, !tbaa !45
  %84 = sdiv i64 %83, 1000
  %85 = add nsw i64 %84, %81
  br label %Abc_Clock.exit15

Abc_Clock.exit15:                                 ; preds = %Vec_PtrCleanSimInfo.exit, %79
  %.0.i14 = phi i64 [ %85, %79 ], [ -1, %Vec_PtrCleanSimInfo.exit ]
  call void @llvm.lifetime.end.p0(i64 16, ptr nonnull %2) #9
  %86 = add i64 %.0.i14, %.0.i.neg
  %87 = getelementptr inbounds nuw i8, ptr %0, i64 368
  %88 = load i64, ptr %87, align 8, !tbaa !50
  %89 = add nsw i64 %86, %88
  store i64 %89, ptr %87, align 8, !tbaa !50
  %90 = icmp sgt i32 %58, 0
  %91 = icmp sgt i32 %60, 0
  %92 = select i1 %90, i1 true, i1 %91
  %93 = zext i1 %92 to i32
  ret i32 %93
}